target datalayout = "e-m:e-p270:32:32-p271:32:32-p272:64:64-i64:64-i128:128-f80:128-n8:16:32:64-S128"
target triple = "x86_64-pc-linux-gnu"

%struct.SwsInternal = type { %struct.SwsContext, ptr, ptr, ptr, ptr, i32, [2 x ptr], i32, i32, ptr, i32, i32, i32, i32, i32, i32, i32, i32, i32, i32, i32, i32, i32, i32, i32, i32, i32, i32, ptr, ptr, %struct.RangeList, [3 x ptr], [2 x [4 x i32]], [2 x [4 x ptr]], i32, double, i32, ptr, ptr, i32, [2 x i32], i32, ptr, ptr, [256 x i32], [256 x i32], [256 x float], i32, i32, ptr, i32, ptr, ptr, ptr, ptr, ptr, ptr, ptr, ptr, i32, i32, i32, i32, i32, i32, ptr, ptr, i32, i32, i32, ptr, [8 x i8], [1280 x i32], [1280 x ptr], [1280 x ptr], [1280 x ptr], [176 x i32], [4 x ptr], i32, i32, i32, [4 x i32], [4 x i32], i32, i32, i32, i32, i32, i32, i32, i32, i32, i32, i64, i64, i64, i64, i64, i64, i64, i64, i64, i64, i64, [1024 x i32], [1024 x i32], i32, i64, i64, i64, i64, i64, [1024 x i32], i64, i64, [8 x i16], [8 x i32], ptr, ptr, i32, ptr, ptr, ptr, ptr, [3 x [4 x i16]], [3 x [4 x i16]], ptr, ptr, ptr, ptr, ptr, ptr, ptr, ptr, ptr, ptr, ptr, ptr, ptr, ptr, ptr, ptr, ptr, ptr, ptr, ptr, i32, i32, i64, i64, i32, ptr, i32, ptr, i32, i32, i32, i32, i32, ptr }
%struct.SwsContext = type { ptr, ptr, i32, [2 x double], i32, i32, i32, i32, i32, i32, i32, i32, i32, i32, i32, i32, i32, i32, i32, i32, i32 }
%struct.RangeList = type { ptr, i32, i32 }
%struct.AVPixFmtDescriptor = type { ptr, i8, i8, i8, i64, [4 x %struct.AVComponentDescriptor], ptr }
%struct.AVComponentDescriptor = type { i32, i32, i32, i32, i32 }

@.str = private unnamed_addr constant [59 x i8] c"No accelerated colorspace conversion found from %s to %s.\0A\00", align 1
@.str.2 = private unnamed_addr constant [30 x i8] c"Assertion %s failed at %s:%d\0A\00", align 1
@.str.3 = private unnamed_addr constant [5 x i8] c"desc\00", align 1
@.str.4 = private unnamed_addr constant [30 x i8] c"libswscale/swscale_internal.h\00", align 1

; Function Attrs: alwaysinline nounwind uwtable
define internal i32 @isALPHA(i32 noundef %0) #3 {
  %2 = alloca i32, align 4
  %3 = alloca i32, align 4
  %4 = alloca ptr, align 8
  %5 = alloca i32, align 4
  store i32 %0, ptr %3, align 4, !tbaa !4
  call void @llvm.lifetime.start.p0(i64 8, ptr %4) #7
  %6 = load i32, ptr %3, align 4, !tbaa !4
  %7 = call ptr @av_pix_fmt_desc_get(i32 noundef %6)
  store ptr %7, ptr %4, align 8, !tbaa !43
  br label %8

8:                                                ; preds = %1
  %9 = load ptr, ptr %4, align 8, !tbaa !43
  %10 = icmp ne ptr %9, null
  br i1 %10, label %12, label %11

11:                                               ; preds = %8
  call void (ptr, i32, ptr, ...) @av_log(ptr noundef null, i32 noundef 0, ptr noundef @.str.2, ptr noundef @.str.3, ptr noundef @.str.4, i32 noundef 881)
  call void @abort() #8
  unreachable

12:                                               ; preds = %8
  br label %13

13:                                               ; preds = %12
  br label %14

14:                                               ; preds = %13
  %15 = load i32, ptr %3, align 4, !tbaa !4
  %16 = icmp eq i32 %15, 11
  br i1 %16, label %17, label %18

17:                                               ; preds = %14
  store i32 1, ptr %2, align 4
  store i32 1, ptr %5, align 4
  br label %24

18:                                               ; preds = %14
  %19 = load ptr, ptr %4, align 8, !tbaa !43
  %20 = getelementptr inbounds nuw %struct.AVPixFmtDescriptor, ptr %19, i32 0, i32 4
  %21 = load i64, ptr %20, align 8, !tbaa !45
  %22 = and i64 %21, 128
  %23 = trunc i64 %22 to i32
  store i32 %23, ptr %2, align 4
  store i32 1, ptr %5, align 4
  br label %24

24:                                               ; preds = %18, %17
  call void @llvm.lifetime.end.p0(i64 8, ptr %4) #7
  %25 = load i32, ptr %2, align 4
  ret i32 %25
}

; Function Attrs: nounwind uwtable
define ptr @ff_yuv2rgb_get_func_ptr(ptr noundef %0) #0 {
  %2 = alloca ptr, align 8
  %3 = alloca ptr, align 8
  %4 = alloca ptr, align 8
  %5 = alloca i32, align 4
  store ptr %0, ptr %3, align 8, !tbaa !8
  call void @llvm.lifetime.start.p0(i64 8, ptr %4) #7
  store ptr null, ptr %4, align 8, !tbaa !11
  %6 = load ptr, ptr %4, align 8, !tbaa !11
  %7 = icmp ne ptr %6, null
  br i1 %7, label %8, label %10

8:                                                ; preds = %1
  %9 = load ptr, ptr %4, align 8, !tbaa !11
  store ptr %9, ptr %2, align 8
  store i32 1, ptr %5, align 4
  br label %98

10:                                               ; preds = %1
  %11 = load ptr, ptr %3, align 8, !tbaa !8
  %12 = load ptr, ptr %3, align 8, !tbaa !8
  %13 = getelementptr inbounds nuw %struct.SwsInternal, ptr %12, i32 0, i32 0
  %14 = getelementptr inbounds nuw %struct.SwsContext, ptr %13, i32 0, i32 12
  %15 = load i32, ptr %14, align 8, !tbaa !12
  %16 = call ptr @av_get_pix_fmt_name(i32 noundef %15)
  %17 = load ptr, ptr %3, align 8, !tbaa !8
  %18 = getelementptr inbounds nuw %struct.SwsInternal, ptr %17, i32 0, i32 0
  %19 = getelementptr inbounds nuw %struct.SwsContext, ptr %18, i32 0, i32 13
  %20 = load i32, ptr %19, align 4, !tbaa !31
  %21 = call ptr @av_get_pix_fmt_name(i32 noundef %20)
  call void (ptr, i32, ptr, ...) @av_log(ptr noundef %11, i32 noundef 24, ptr noundef @.str, ptr noundef %16, ptr noundef %21)
  %22 = load ptr, ptr %3, align 8, !tbaa !8
  %23 = getelementptr inbounds nuw %struct.SwsInternal, ptr %22, i32 0, i32 0
  %24 = getelementptr inbounds nuw %struct.SwsContext, ptr %23, i32 0, i32 12
  %25 = load i32, ptr %24, align 8, !tbaa !12
  %26 = icmp eq i32 %25, 4
  br i1 %26, label %27, label %62

27:                                               ; preds = %10
  %28 = load ptr, ptr %3, align 8, !tbaa !8
  %29 = getelementptr inbounds nuw %struct.SwsInternal, ptr %28, i32 0, i32 0
  %30 = getelementptr inbounds nuw %struct.SwsContext, ptr %29, i32 0, i32 13
  %31 = load i32, ptr %30, align 4, !tbaa !31
  switch i32 %31, label %61 [
    i32 57, label %32
    i32 58, label %32
    i32 34, label %33
    i32 35, label %33
    i32 25, label %34
    i32 27, label %34
    i32 26, label %43
    i32 28, label %43
    i32 2, label %51
    i32 3, label %52
    i32 37, label %53
    i32 41, label %53
    i32 39, label %54
    i32 43, label %54
    i32 52, label %55
    i32 54, label %55
    i32 20, label %56
    i32 17, label %56
    i32 21, label %57
    i32 18, label %57
    i32 22, label %58
    i32 19, label %58
    i32 10, label %59
    i32 71, label %60
  ]

32:                                               ; preds = %27, %27
  store ptr @yuv422p_bgr48_c, ptr %2, align 8
  store i32 1, ptr %5, align 4
  br label %98

33:                                               ; preds = %27, %27
  store ptr @yuv422p_rgb48_c, ptr %2, align 8
  store i32 1, ptr %5, align 4
  br label %98

34:                                               ; preds = %27, %27
  %35 = load ptr, ptr %3, align 8, !tbaa !8
  %36 = getelementptr inbounds nuw %struct.SwsInternal, ptr %35, i32 0, i32 0
  %37 = getelementptr inbounds nuw %struct.SwsContext, ptr %36, i32 0, i32 12
  %38 = load i32, ptr %37, align 8, !tbaa !12
  %39 = call i32 @isALPHA(i32 noundef %38)
  %40 = icmp ne i32 %39, 0
  br i1 %40, label %41, label %42

41:                                               ; preds = %34
  store ptr @yuva422p_argb_c, ptr %2, align 8
  store i32 1, ptr %5, align 4
  br label %98

42:                                               ; preds = %34
  br label %43

43:                                               ; preds = %27, %27, %42
  %44 = load ptr, ptr %3, align 8, !tbaa !8
  %45 = getelementptr inbounds nuw %struct.SwsInternal, ptr %44, i32 0, i32 0
  %46 = getelementptr inbounds nuw %struct.SwsContext, ptr %45, i32 0, i32 12
  %47 = load i32, ptr %46, align 8, !tbaa !12
  %48 = call i32 @isALPHA(i32 noundef %47)
  %49 = icmp ne i32 %48, 0
  %50 = select i1 %49, ptr @yuva422p_rgba_c, ptr @yuv422p_rgb32_c
  store ptr %50, ptr %2, align 8
  store i32 1, ptr %5, align 4
  br label %98

51:                                               ; preds = %27
  store ptr @yuv422p_rgb24_c, ptr %2, align 8
  store i32 1, ptr %5, align 4
  br label %98

52:                                               ; preds = %27
  store ptr @yuv422p_bgr24_c, ptr %2, align 8
  store i32 1, ptr %5, align 4
  br label %98

53:                                               ; preds = %27, %27
  store ptr @yuv422p_bgr16, ptr %2, align 8
  store i32 1, ptr %5, align 4
  br label %98

54:                                               ; preds = %27, %27
  store ptr @yuv422p_bgr15, ptr %2, align 8
  store i32 1, ptr %5, align 4
  br label %98

55:                                               ; preds = %27, %27
  store ptr @yuv422p_bgr12, ptr %2, align 8
  store i32 1, ptr %5, align 4
  br label %98

56:                                               ; preds = %27, %27
  store ptr @yuv422p_bgr8, ptr %2, align 8
  store i32 1, ptr %5, align 4
  br label %98

57:                                               ; preds = %27, %27
  store ptr @yuv422p_bgr4, ptr %2, align 8
  store i32 1, ptr %5, align 4
  br label %98

58:                                               ; preds = %27, %27
  store ptr @yuv422p_bgr4_byte, ptr %2, align 8
  store i32 1, ptr %5, align 4
  br label %98

59:                                               ; preds = %27
  store ptr @yuv2rgb_c_1_ordered_dither, ptr %2, align 8
  store i32 1, ptr %5, align 4
  br label %98

60:                                               ; preds = %27
  store ptr @yuv422p_gbrp_c, ptr %2, align 8
  store i32 1, ptr %5, align 4
  br label %98

61:                                               ; preds = %27
  br label %97

62:                                               ; preds = %10
  %63 = load ptr, ptr %3, align 8, !tbaa !8
  %64 = getelementptr inbounds nuw %struct.SwsInternal, ptr %63, i32 0, i32 0
  %65 = getelementptr inbounds nuw %struct.SwsContext, ptr %64, i32 0, i32 13
  %66 = load i32, ptr %65, align 4, !tbaa !31
  switch i32 %66, label %96 [
    i32 57, label %67
    i32 58, label %67
    i32 34, label %68
    i32 35, label %68
    i32 25, label %69
    i32 27, label %69
    i32 26, label %78
    i32 28, label %78
    i32 2, label %86
    i32 3, label %87
    i32 37, label %88
    i32 41, label %88
    i32 39, label %89
    i32 43, label %89
    i32 52, label %90
    i32 54, label %90
    i32 20, label %91
    i32 17, label %91
    i32 21, label %92
    i32 18, label %92
    i32 22, label %93
    i32 19, label %93
    i32 10, label %94
    i32 71, label %95
  ]

67:                                               ; preds = %62, %62
  store ptr @yuv2rgb_c_bgr48, ptr %2, align 8
  store i32 1, ptr %5, align 4
  br label %98

68:                                               ; preds = %62, %62
  store ptr @yuv2rgb_c_48, ptr %2, align 8
  store i32 1, ptr %5, align 4
  br label %98

69:                                               ; preds = %62, %62
  %70 = load ptr, ptr %3, align 8, !tbaa !8
  %71 = getelementptr inbounds nuw %struct.SwsInternal, ptr %70, i32 0, i32 0
  %72 = getelementptr inbounds nuw %struct.SwsContext, ptr %71, i32 0, i32 12
  %73 = load i32, ptr %72, align 8, !tbaa !12
  %74 = call i32 @isALPHA(i32 noundef %73)
  %75 = icmp ne i32 %74, 0
  br i1 %75, label %76, label %77

76:                                               ; preds = %69
  store ptr @yuva2argb_c, ptr %2, align 8
  store i32 1, ptr %5, align 4
  br label %98

77:                                               ; preds = %69
  br label %78

78:                                               ; preds = %62, %62, %77
  %79 = load ptr, ptr %3, align 8, !tbaa !8
  %80 = getelementptr inbounds nuw %struct.SwsInternal, ptr %79, i32 0, i32 0
  %81 = getelementptr inbounds nuw %struct.SwsContext, ptr %80, i32 0, i32 12
  %82 = load i32, ptr %81, align 8, !tbaa !12
  %83 = call i32 @isALPHA(i32 noundef %82)
  %84 = icmp ne i32 %83, 0
  %85 = select i1 %84, ptr @yuva2rgba_c, ptr @yuv2rgb_c_32
  store ptr %85, ptr %2, align 8
  store i32 1, ptr %5, align 4
  br label %98

86:                                               ; preds = %62
  store ptr @yuv2rgb_c_24_rgb, ptr %2, align 8
  store i32 1, ptr %5, align 4
  br label %98

87:                                               ; preds = %62
  store ptr @yuv2rgb_c_24_bgr, ptr %2, align 8
  store i32 1, ptr %5, align 4
  br label %98

88:                                               ; preds = %62, %62
  store ptr @yuv2rgb_c_16_ordered_dither, ptr %2, align 8
  store i32 1, ptr %5, align 4
  br label %98

89:                                               ; preds = %62, %62
  store ptr @yuv2rgb_c_15_ordered_dither, ptr %2, align 8
  store i32 1, ptr %5, align 4
  br label %98

90:                                               ; preds = %62, %62
  store ptr @yuv2rgb_c_12_ordered_dither, ptr %2, align 8
  store i32 1, ptr %5, align 4
  br label %98

91:                                               ; preds = %62, %62
  store ptr @yuv2rgb_c_8_ordered_dither, ptr %2, align 8
  store i32 1, ptr %5, align 4
  br label %98

92:                                               ; preds = %62, %62
  store ptr @yuv2rgb_c_4_ordered_dither, ptr %2, align 8
  store i32 1, ptr %5, align 4
  br label %98

93:                                               ; preds = %62, %62
  store ptr @yuv2rgb_c_4b_ordered_dither, ptr %2, align 8
  store i32 1, ptr %5, align 4
  br label %98

94:                                               ; preds = %62
  store ptr @yuv2rgb_c_1_ordered_dither, ptr %2, align 8
  store i32 1, ptr %5, align 4
  br label %98

95:                                               ; preds = %62
  store ptr @yuv420p_gbrp_c, ptr %2, align 8
  store i32 1, ptr %5, align 4
  br label %98

96:                                               ; preds = %62
  br label %97

97:                                               ; preds = %96, %61
  store ptr null, ptr %2, align 8
  store i32 1, ptr %5, align 4
  br label %98

98:                                               ; preds = %97, %95, %94, %93, %92, %91, %90, %89, %88, %87, %86, %78, %76, %68, %67, %60, %59, %58, %57, %56, %55, %54, %53, %52, %51, %43, %41, %33, %32, %8
  call void @llvm.lifetime.end.p0(i64 8, ptr %4) #7
  %99 = load ptr, ptr %2, align 8
  ret ptr %99
}