; Function Attrs: nounwind uwtable
define noundef ptr @ff_yuv2rgb_get_func_ptr(ptr noundef %0) local_unnamed_addr #1 {
  %2 = getelementptr inbounds nuw i8, ptr %0, i64 72
  %3 = load i32, ptr %2, align 8, !tbaa !4
  %4 = tail call ptr @av_get_pix_fmt_name(i32 noundef %3) #7
  %5 = getelementptr inbounds nuw i8, ptr %0, i64 76
  %6 = load i32, ptr %5, align 4, !tbaa !27
  %7 = tail call ptr @av_get_pix_fmt_name(i32 noundef %6) #7
  tail call void (ptr, i32, ptr, ...) @av_log(ptr noundef %0, i32 noundef 24, ptr noundef nonnull @.str, ptr noundef %4, ptr noundef %7) #7
  %8 = load i32, ptr %2, align 8, !tbaa !4
  %9 = icmp eq i32 %8, 4
  %10 = load i32, ptr %5, align 4, !tbaa !27
  br i1 %9, label %11, label %38

11:                                               ; preds = %1
  switch i32 %10, label %67 [
    i32 57, label %isALPHA.exit18.thread
    i32 58, label %isALPHA.exit18.thread
    i32 34, label %12
    i32 35, label %12
    i32 25, label %13
    i32 27, label %13
    i32 26, label %19
    i32 28, label %19
    i32 2, label %28
    i32 3, label %29
    i32 37, label %30
    i32 41, label %30
    i32 39, label %31
    i32 43, label %31
    i32 52, label %32
    i32 54, label %32
    i32 20, label %33
    i32 17, label %33
    i32 21, label %34
    i32 18, label %34
    i32 22, label %35
    i32 19, label %35
    i32 10, label %36
    i32 71, label %37
  ]

12:                                               ; preds = %11, %11
  br label %isALPHA.exit18.thread

13:                                               ; preds = %11, %11
  %14 = tail call ptr @av_pix_fmt_desc_get(i32 noundef 4) #7
  %.not.i = icmp eq ptr %14, null
  br i1 %.not.i, label %15, label %isALPHA.exit

15:                                               ; preds = %13
  tail call void (ptr, i32, ptr, ...) @av_log(ptr noundef null, i32 noundef 0, ptr noundef nonnull @.str.2, ptr noundef nonnull @.str.3, ptr noundef nonnull @.str.4, i32 noundef 881) #7
  tail call void @abort() #8
  unreachable

isALPHA.exit:                                     ; preds = %13
  %16 = getelementptr inbounds nuw i8, ptr %14, i64 16
  %17 = load i64, ptr %16, align 8, !tbaa !28
  %18 = and i64 %17, 128
  %.not14 = icmp eq i64 %18, 0
  br i1 %.not14, label %thread-pre-split, label %isALPHA.exit18.thread

thread-pre-split:                                 ; preds = %isALPHA.exit
  %.pr = load i32, ptr %2, align 8, !tbaa !4
  br label %19

19:                                               ; preds = %thread-pre-split, %11, %11
  %20 = phi i32 [ %.pr, %thread-pre-split ], [ 4, %11 ], [ 4, %11 ]
  %21 = tail call ptr @av_pix_fmt_desc_get(i32 noundef %20) #7
  %.not.i16 = icmp eq ptr %21, null
  br i1 %.not.i16, label %22, label %23

22:                                               ; preds = %19
  tail call void (ptr, i32, ptr, ...) @av_log(ptr noundef null, i32 noundef 0, ptr noundef nonnull @.str.2, ptr noundef nonnull @.str.3, ptr noundef nonnull @.str.4, i32 noundef 881) #7
  tail call void @abort() #8
  unreachable

23:                                               ; preds = %19
  %24 = icmp eq i32 %20, 11
  br i1 %24, label %isALPHA.exit18.thread, label %isALPHA.exit18

isALPHA.exit18:                                   ; preds = %23
  %25 = getelementptr inbounds nuw i8, ptr %21, i64 16
  %26 = load i64, ptr %25, align 8, !tbaa !28
  %.fr38 = freeze i64 %26
  %27 = and i64 %.fr38, 128
  %.not15 = icmp eq i64 %27, 0
  %spec.select = select i1 %.not15, ptr @yuv422p_rgb32_c, ptr @yuva422p_rgba_c
  br label %isALPHA.exit18.thread

28:                                               ; preds = %11
  br label %isALPHA.exit18.thread

29:                                               ; preds = %11
  br label %isALPHA.exit18.thread

30:                                               ; preds = %11, %11
  br label %isALPHA.exit18.thread

31:                                               ; preds = %11, %11
  br label %isALPHA.exit18.thread

32:                                               ; preds = %11, %11
  br label %isALPHA.exit18.thread

33:                                               ; preds = %11, %11
  br label %isALPHA.exit18.thread

34:                                               ; preds = %11, %11
  br label %isALPHA.exit18.thread

35:                                               ; preds = %11, %11
  br label %isALPHA.exit18.thread

36:                                               ; preds = %11
  br label %isALPHA.exit18.thread

37:                                               ; preds = %11
  br label %isALPHA.exit18.thread

38:                                               ; preds = %1
  switch i32 %10, label %67 [
    i32 57, label %isALPHA.exit18.thread
    i32 58, label %isALPHA.exit18.thread
    i32 34, label %39
    i32 35, label %39
    i32 25, label %40
    i32 27, label %40
    i32 26, label %48
    i32 28, label %48
    i32 2, label %57
    i32 3, label %58
    i32 37, label %59
    i32 41, label %59
    i32 39, label %60
    i32 43, label %60
    i32 52, label %61
    i32 54, label %61
    i32 20, label %62
    i32 17, label %62
    i32 21, label %63
    i32 18, label %63
    i32 22, label %64
    i32 19, label %64
    i32 10, label %65
    i32 71, label %66
  ]

39:                                               ; preds = %38, %38
  br label %isALPHA.exit18.thread

40:                                               ; preds = %38, %38
  %41 = tail call ptr @av_pix_fmt_desc_get(i32 noundef %8) #7
  %.not.i19 = icmp eq ptr %41, null
  br i1 %.not.i19, label %42, label %43

42:                                               ; preds = %40
  tail call void (ptr, i32, ptr, ...) @av_log(ptr noundef null, i32 noundef 0, ptr noundef nonnull @.str.2, ptr noundef nonnull @.str.3, ptr noundef nonnull @.str.4, i32 noundef 881) #7
  tail call void @abort() #8
  unreachable

43:                                               ; preds = %40
  %44 = icmp eq i32 %8, 11
  br i1 %44, label %isALPHA.exit18.thread, label %isALPHA.exit21

isALPHA.exit21:                                   ; preds = %43
  %45 = getelementptr inbounds nuw i8, ptr %41, i64 16
  %46 = load i64, ptr %45, align 8, !tbaa !28
  %47 = and i64 %46, 128
  %.not = icmp eq i64 %47, 0
  br i1 %.not, label %thread-pre-split30, label %isALPHA.exit18.thread

thread-pre-split30:                               ; preds = %isALPHA.exit21
  %.pr31 = load i32, ptr %2, align 8, !tbaa !4
  br label %48

48:                                               ; preds = %thread-pre-split30, %38, %38
  %49 = phi i32 [ %.pr31, %thread-pre-split30 ], [ %8, %38 ], [ %8, %38 ]
  %50 = tail call ptr @av_pix_fmt_desc_get(i32 noundef %49) #7
  %.not.i22 = icmp eq ptr %50, null
  br i1 %.not.i22, label %51, label %52

51:                                               ; preds = %48
  tail call void (ptr, i32, ptr, ...) @av_log(ptr noundef null, i32 noundef 0, ptr noundef nonnull @.str.2, ptr noundef nonnull @.str.3, ptr noundef nonnull @.str.4, i32 noundef 881) #7
  tail call void @abort() #8
  unreachable

52:                                               ; preds = %48
  %53 = icmp eq i32 %49, 11
  br i1 %53, label %isALPHA.exit18.thread, label %isALPHA.exit24

isALPHA.exit24:                                   ; preds = %52
  %54 = getelementptr inbounds nuw i8, ptr %50, i64 16
  %55 = load i64, ptr %54, align 8, !tbaa !28
  %.fr37 = freeze i64 %55
  %56 = and i64 %.fr37, 128
  %.not13 = icmp eq i64 %56, 0
  %spec.select36 = select i1 %.not13, ptr @yuv2rgb_c_32, ptr @yuva2rgba_c
  br label %isALPHA.exit18.thread

57:                                               ; preds = %38
  br label %isALPHA.exit18.thread

58:                                               ; preds = %38
  br label %isALPHA.exit18.thread

59:                                               ; preds = %38, %38
  br label %isALPHA.exit18.thread

60:                                               ; preds = %38, %38
  br label %isALPHA.exit18.thread

61:                                               ; preds = %38, %38
  br label %isALPHA.exit18.thread

62:                                               ; preds = %38, %38
  br label %isALPHA.exit18.thread

63:                                               ; preds = %38, %38
  br label %isALPHA.exit18.thread

64:                                               ; preds = %38, %38
  br label %isALPHA.exit18.thread

65:                                               ; preds = %38
  br label %isALPHA.exit18.thread

66:                                               ; preds = %38
  br label %isALPHA.exit18.thread

67:                                               ; preds = %38, %11
  br label %isALPHA.exit18.thread

isALPHA.exit18.thread:                            ; preds = %isALPHA.exit24, %isALPHA.exit18, %52, %43, %23, %isALPHA.exit21, %38, %38, %isALPHA.exit, %11, %11, %67, %66, %65, %64, %63, %62, %61, %60, %59, %58, %57, %39, %37, %36, %35, %34, %33, %32, %31, %30, %29, %28, %12
  %.0 = phi ptr [ null, %67 ], [ @yuv422p_gbrp_c, %37 ], [ @yuv2rgb_c_1_ordered_dither, %36 ], [ @yuv422p_bgr4_byte, %35 ], [ @yuv422p_bgr4, %34 ], [ @yuv422p_bgr8, %33 ], [ @yuv422p_bgr12, %32 ], [ @yuv422p_bgr15, %31 ], [ @yuv422p_bgr16, %30 ], [ @yuv422p_bgr24_c, %29 ], [ @yuv422p_rgb24_c, %28 ], [ @yuv422p_rgb48_c, %12 ], [ @yuv420p_gbrp_c, %66 ], [ @yuv2rgb_c_1_ordered_dither, %65 ], [ @yuv2rgb_c_4b_ordered_dither, %64 ], [ @yuv2rgb_c_4_ordered_dither, %63 ], [ @yuv2rgb_c_8_ordered_dither, %62 ], [ @yuv2rgb_c_12_ordered_dither, %61 ], [ @yuv2rgb_c_15_ordered_dither, %60 ], [ @yuv2rgb_c_16_ordered_dither, %59 ], [ @yuv2rgb_c_24_bgr, %58 ], [ @yuv2rgb_c_24_rgb, %57 ], [ @yuv2rgb_c_48, %39 ], [ @yuv422p_bgr48_c, %11 ], [ @yuv422p_bgr48_c, %11 ], [ @yuva422p_argb_c, %isALPHA.exit ], [ @yuv2rgb_c_bgr48, %38 ], [ @yuv2rgb_c_bgr48, %38 ], [ @yuva2argb_c, %isALPHA.exit21 ], [ @yuva422p_rgba_c, %23 ], [ @yuva2argb_c, %43 ], [ @yuva2rgba_c, %52 ], [ %spec.select, %isALPHA.exit18 ], [ %spec.select36, %isALPHA.exit24 ]
  ret ptr %.0
}